target datalayout = "e-m:e-p270:32:32-p271:32:32-p272:64:64-i64:64-i128:128-f80:128-n8:16:32:64-S128"
target triple = "x86_64-pc-linux-gnu"

%"struct.net::HpackPrefix" = type { i8, i64 }
%"class.net::HpackEncoder" = type <{ %"class.net::HpackHeaderTable", %"class.net::HpackOutputStream", ptr, i64, %"class.std::function", i8, i8, [6 x i8] }>
%"class.net::HpackHeaderTable" = type { ptr, %"class.std::deque", ptr, ptr, %"class.std::unordered_set", %"class.std::unordered_map", i64, i64, i64, i64, %"class.std::unique_ptr" }
%"class.std::deque" = type { %"class.std::_Deque_base" }
%"class.std::_Deque_base" = type { %"struct.std::_Deque_base<net::HpackEntry, std::allocator<net::HpackEntry>>::_Deque_impl" }
%"struct.std::_Deque_base<net::HpackEntry, std::allocator<net::HpackEntry>>::_Deque_impl" = type { %"struct.std::_Deque_base<net::HpackEntry, std::allocator<net::HpackEntry>>::_Deque_impl_data" }
%"struct.std::_Deque_base<net::HpackEntry, std::allocator<net::HpackEntry>>::_Deque_impl_data" = type { ptr, i64, %"struct.std::_Deque_iterator", %"struct.std::_Deque_iterator" }
%"struct.std::_Deque_iterator" = type { ptr, ptr, ptr, ptr }
%"class.std::unordered_set" = type { %"class.std::_Hashtable" }
%"class.std::_Hashtable" = type { ptr, i64, %"struct.std::__detail::_Hash_node_base", i64, %"struct.std::__detail::_Prime_rehash_policy", ptr }
%"struct.std::__detail::_Hash_node_base" = type { ptr }
%"struct.std::__detail::_Prime_rehash_policy" = type { float, i64 }
%"class.std::unordered_map" = type { %"class.std::_Hashtable.5" }
%"class.std::_Hashtable.5" = type { ptr, i64, %"struct.std::__detail::_Hash_node_base", i64, %"struct.std::__detail::_Prime_rehash_policy", ptr }
%"class.std::unique_ptr" = type { %"struct.std::__uniq_ptr_data" }
%"struct.std::__uniq_ptr_data" = type { %"class.std::__uniq_ptr_impl" }
%"class.std::__uniq_ptr_impl" = type { %"class.std::tuple" }
%"class.std::tuple" = type { %"struct.std::_Tuple_impl" }
%"struct.std::_Tuple_impl" = type { %"struct.std::_Head_base.21" }
%"struct.std::_Head_base.21" = type { ptr }
%"class.net::HpackOutputStream" = type { %"class.std::__cxx11::basic_string", i64 }
%"class.std::__cxx11::basic_string" = type { %"struct.std::__cxx11::basic_string<char>::_Alloc_hider", i64, %union.anon }
%"struct.std::__cxx11::basic_string<char>::_Alloc_hider" = type { ptr }
%union.anon = type { i64, [8 x i8] }
%"class.std::function" = type { %"class.std::_Function_base", ptr }
%"class.std::_Function_base" = type { %"union.std::_Any_data", ptr }
%"union.std::_Any_data" = type { %"union.std::_Nocopy_types" }
%"union.std::_Nocopy_types" = type { { i64, i64 } }
%"class.base::BasicStringPiece" = type { ptr, i64 }

@_ZN3netL28kStringLiteralHuffmanEncodedE = internal constant %"struct.net::HpackPrefix" { i8 1, i64 1 }, align 8
@_ZN3netL29kStringLiteralIdentityEncodedE = internal constant %"struct.net::HpackPrefix" { i8 0, i64 1 }, align 8

; Function Attrs: mustprogress nounwind uwtable
define available_externally noundef i64 @_ZNK4base16BasicStringPieceINSt7__cxx1112basic_stringIcSt11char_traitsIcESaIcEEEE4sizeEv(ptr noundef nonnull align 8 dereferenceable(16) %0) #2 align 2 {
  %2 = alloca ptr, align 8
  store ptr %0, ptr %2, align 8, !tbaa !80
  %3 = load ptr, ptr %2, align 8
  %4 = getelementptr inbounds nuw %"class.base::BasicStringPiece", ptr %3, i32 0, i32 1
  %5 = load i64, ptr %4, align 8, !tbaa !84
  ret i64 %5
}

; Function Attrs: mustprogress uwtable
define void @_ZN3net12HpackEncoder10EmitStringEN4base16BasicStringPieceINSt7__cxx1112basic_stringIcSt11char_traitsIcESaIcEEEEE(ptr noundef nonnull align 8 dereferenceable(346) %0, ptr %1, i64 %2) #0 align 2 {
  %4 = alloca %"class.base::BasicStringPiece", align 8
  %5 = alloca ptr, align 8
  %6 = alloca i64, align 8
  %7 = alloca %"class.base::BasicStringPiece", align 8
  %8 = alloca %"struct.net::HpackPrefix", align 8
  %9 = alloca %"class.base::BasicStringPiece", align 8
  %10 = alloca %"struct.net::HpackPrefix", align 8
  %11 = alloca %"class.base::BasicStringPiece", align 8
  %12 = getelementptr inbounds nuw { ptr, i64 }, ptr %4, i32 0, i32 0
  store ptr %1, ptr %12, align 8
  %13 = getelementptr inbounds nuw { ptr, i64 }, ptr %4, i32 0, i32 1
  store i64 %2, ptr %13, align 8
  store ptr %0, ptr %5, align 8, !tbaa !3
  %14 = load ptr, ptr %5, align 8
  call void @llvm.lifetime.start.p0(i64 8, ptr %6) #14
  %15 = getelementptr inbounds nuw %"class.net::HpackEncoder", ptr %14, i32 0, i32 5
  %16 = load i8, ptr %15, align 8, !tbaa !47, !range !73, !noundef !74
  %17 = trunc i8 %16 to i1
  br i1 %17, label %20, label %18

18:                                               ; preds = %3
  %19 = call noundef i64 @_ZNK4base16BasicStringPieceINSt7__cxx1112basic_stringIcSt11char_traitsIcESaIcEEEE4sizeEv(ptr noundef nonnull align 8 dereferenceable(16) %4)
  br label %28

20:                                               ; preds = %3
  %21 = getelementptr inbounds nuw %"class.net::HpackEncoder", ptr %14, i32 0, i32 2
  %22 = load ptr, ptr %21, align 8, !tbaa !99
  call void @llvm.memcpy.p0.p0.i64(ptr align 8 %7, ptr align 8 %4, i64 16, i1 false), !tbaa.struct !62
  %23 = getelementptr inbounds nuw { ptr, i64 }, ptr %7, i32 0, i32 0
  %24 = load ptr, ptr %23, align 8
  %25 = getelementptr inbounds nuw { ptr, i64 }, ptr %7, i32 0, i32 1
  %26 = load i64, ptr %25, align 8
  %27 = call noundef i64 @_ZNK3net17HpackHuffmanTable11EncodedSizeEN4base16BasicStringPieceINSt7__cxx1112basic_stringIcSt11char_traitsIcESaIcEEEEE(ptr noundef nonnull align 8 dereferenceable(100) %22, ptr %24, i64 %26)
  br label %28

28:                                               ; preds = %20, %18
  %29 = phi i64 [ %19, %18 ], [ %27, %20 ]
  store i64 %29, ptr %6, align 8, !tbaa !64
  %30 = load i64, ptr %6, align 8, !tbaa !64
  %31 = call noundef i64 @_ZNK4base16BasicStringPieceINSt7__cxx1112basic_stringIcSt11char_traitsIcESaIcEEEE4sizeEv(ptr noundef nonnull align 8 dereferenceable(16) %4)
  %32 = icmp ult i64 %30, %31
  br i1 %32, label %33, label %49

33:                                               ; preds = %28
  %34 = getelementptr inbounds nuw %"class.net::HpackEncoder", ptr %14, i32 0, i32 1
  call void @llvm.memcpy.p0.p0.i64(ptr align 8 %8, ptr align 8 @_ZN3netL28kStringLiteralHuffmanEncodedE, i64 16, i1 false), !tbaa.struct !93
  %35 = getelementptr inbounds nuw { i8, i64 }, ptr %8, i32 0, i32 0
  %36 = load i8, ptr %35, align 8
  %37 = getelementptr inbounds nuw { i8, i64 }, ptr %8, i32 0, i32 1
  %38 = load i64, ptr %37, align 8
  call void @_ZN3net17HpackOutputStream12AppendPrefixENS_11HpackPrefixE(ptr noundef nonnull align 8 dereferenceable(40) %34, i8 %36, i64 %38)
  %39 = getelementptr inbounds nuw %"class.net::HpackEncoder", ptr %14, i32 0, i32 1
  %40 = load i64, ptr %6, align 8, !tbaa !64
  %41 = trunc i64 %40 to i32
  call void @_ZN3net17HpackOutputStream12AppendUint32Ej(ptr noundef nonnull align 8 dereferenceable(40) %39, i32 noundef %41)
  %42 = getelementptr inbounds nuw %"class.net::HpackEncoder", ptr %14, i32 0, i32 2
  %43 = load ptr, ptr %42, align 8, !tbaa !99
  call void @llvm.memcpy.p0.p0.i64(ptr align 8 %9, ptr align 8 %4, i64 16, i1 false), !tbaa.struct !62
  %44 = getelementptr inbounds nuw %"class.net::HpackEncoder", ptr %14, i32 0, i32 1
  %45 = getelementptr inbounds nuw { ptr, i64 }, ptr %9, i32 0, i32 0
  %46 = load ptr, ptr %45, align 8
  %47 = getelementptr inbounds nuw { ptr, i64 }, ptr %9, i32 0, i32 1
  %48 = load i64, ptr %47, align 8
  call void @_ZNK3net17HpackHuffmanTable12EncodeStringEN4base16BasicStringPieceINSt7__cxx1112basic_stringIcSt11char_traitsIcESaIcEEEEEPNS_17HpackOutputStreamE(ptr noundef nonnull align 8 dereferenceable(100) %43, ptr %46, i64 %48, ptr noundef %44)
  br label %63

49:                                               ; preds = %28
  %50 = getelementptr inbounds nuw %"class.net::HpackEncoder", ptr %14, i32 0, i32 1
  call void @llvm.memcpy.p0.p0.i64(ptr align 8 %10, ptr align 8 @_ZN3netL29kStringLiteralIdentityEncodedE, i64 16, i1 false), !tbaa.struct !93
  %51 = getelementptr inbounds nuw { i8, i64 }, ptr %10, i32 0, i32 0
  %52 = load i8, ptr %51, align 8
  %53 = getelementptr inbounds nuw { i8, i64 }, ptr %10, i32 0, i32 1
  %54 = load i64, ptr %53, align 8
  call void @_ZN3net17HpackOutputStream12AppendPrefixENS_11HpackPrefixE(ptr noundef nonnull align 8 dereferenceable(40) %50, i8 %52, i64 %54)
  %55 = getelementptr inbounds nuw %"class.net::HpackEncoder", ptr %14, i32 0, i32 1
  %56 = call noundef i64 @_ZNK4base16BasicStringPieceINSt7__cxx1112basic_stringIcSt11char_traitsIcESaIcEEEE4sizeEv(ptr noundef nonnull align 8 dereferenceable(16) %4)
  %57 = trunc i64 %56 to i32
  call void @_ZN3net17HpackOutputStream12AppendUint32Ej(ptr noundef nonnull align 8 dereferenceable(40) %55, i32 noundef %57)
  %58 = getelementptr inbounds nuw %"class.net::HpackEncoder", ptr %14, i32 0, i32 1
  call void @llvm.memcpy.p0.p0.i64(ptr align 8 %11, ptr align 8 %4, i64 16, i1 false), !tbaa.struct !62
  %59 = getelementptr inbounds nuw { ptr, i64 }, ptr %11, i32 0, i32 0
  %60 = load ptr, ptr %59, align 8
  %61 = getelementptr inbounds nuw { ptr, i64 }, ptr %11, i32 0, i32 1
  %62 = load i64, ptr %61, align 8
  call void @_ZN3net17HpackOutputStream11AppendBytesEN4base16BasicStringPieceINSt7__cxx1112basic_stringIcSt11char_traitsIcESaIcEEEEE(ptr noundef nonnull align 8 dereferenceable(40) %58, ptr %60, i64 %62)
  br label %63

63:                                               ; preds = %49, %33
  call void @llvm.lifetime.end.p0(i64 8, ptr %6) #14
  ret void
}