; Function Attrs: mustprogress uwtable
define void @_ZN3net12HpackEncoder10EmitStringEN4base16BasicStringPieceINSt7__cxx1112basic_stringIcSt11char_traitsIcESaIcEEEEE(ptr noundef nonnull align 8 dereferenceable(346) %0, ptr %1, i64 %2) local_unnamed_addr #0 align 2 {
  %4 = getelementptr inbounds nuw i8, ptr %0, i64 344
  %5 = load i8, ptr %4, align 8, !tbaa !48, !range !56, !noundef !57
  %6 = trunc nuw i8 %5 to i1
  br i1 %6, label %7, label %.thread

7:                                                ; preds = %3
  %8 = getelementptr inbounds nuw i8, ptr %0, i64 296
  %9 = load ptr, ptr %8, align 8, !tbaa !91
  %10 = tail call noundef i64 @_ZNK3net17HpackHuffmanTable11EncodedSizeEN4base16BasicStringPieceINSt7__cxx1112basic_stringIcSt11char_traitsIcESaIcEEEEE(ptr noundef nonnull align 8 dereferenceable(100) %9, ptr %1, i64 %2)
  %11 = icmp ult i64 %10, %2
  br i1 %11, label %12, label %.thread

12:                                               ; preds = %7
  %13 = getelementptr inbounds nuw i8, ptr %0, i64 256
  tail call void @_ZN3net17HpackOutputStream12AppendPrefixENS_11HpackPrefixE(ptr noundef nonnull align 8 dereferenceable(40) %13, i8 1, i64 1)
  %14 = trunc i64 %10 to i32
  tail call void @_ZN3net17HpackOutputStream12AppendUint32Ej(ptr noundef nonnull align 8 dereferenceable(40) %13, i32 noundef %14)
  %15 = load ptr, ptr %8, align 8, !tbaa !91
  tail call void @_ZNK3net17HpackHuffmanTable12EncodeStringEN4base16BasicStringPieceINSt7__cxx1112basic_stringIcSt11char_traitsIcESaIcEEEEEPNS_17HpackOutputStreamE(ptr noundef nonnull align 8 dereferenceable(100) %15, ptr %1, i64 %2, ptr noundef nonnull %13)
  br label %18

.thread:                                          ; preds = %3, %7
  %16 = getelementptr inbounds nuw i8, ptr %0, i64 256
  tail call void @_ZN3net17HpackOutputStream12AppendPrefixENS_11HpackPrefixE(ptr noundef nonnull align 8 dereferenceable(40) %16, i8 0, i64 1)
  %17 = trunc i64 %2 to i32
  tail call void @_ZN3net17HpackOutputStream12AppendUint32Ej(ptr noundef nonnull align 8 dereferenceable(40) %16, i32 noundef %17)
  tail call void @_ZN3net17HpackOutputStream11AppendBytesEN4base16BasicStringPieceINSt7__cxx1112basic_stringIcSt11char_traitsIcESaIcEEEEE(ptr noundef nonnull align 8 dereferenceable(40) %16, ptr %1, i64 %2)
  br label %18

18:                                               ; preds = %.thread, %12
  ret void
}